target datalayout = "e-m:e-p270:32:32-p271:32:32-p272:64:64-i64:64-i128:128-f80:128-n8:16:32:64-S128"
target triple = "x86_64-pc-linux-gnu"

%"class.draco::SequentialAttributeDecoder" = type { ptr, ptr, ptr, i32, %"class.std::unique_ptr" }
%"class.std::unique_ptr" = type { %"struct.std::__uniq_ptr_data" }
%"struct.std::__uniq_ptr_data" = type { %"class.std::__uniq_ptr_impl" }
%"class.std::__uniq_ptr_impl" = type { %"class.std::tuple" }
%"class.std::tuple" = type { %"struct.std::_Tuple_impl" }
%"struct.std::_Tuple_impl" = type { %"struct.std::_Head_base.1" }
%"struct.std::_Head_base.1" = type { ptr }
%"class.draco::PointCloudDecoder" = type { ptr, ptr, %"class.std::vector", %"class.std::vector.2", ptr, i8, i8, ptr }
%"class.std::vector" = type { %"struct.std::_Vector_base" }
%"struct.std::_Vector_base" = type { %"struct.std::_Vector_base<std::unique_ptr<draco::AttributesDecoderInterface>, std::allocator<std::unique_ptr<draco::AttributesDecoderInterface>>>::_Vector_impl" }
%"struct.std::_Vector_base<std::unique_ptr<draco::AttributesDecoderInterface>, std::allocator<std::unique_ptr<draco::AttributesDecoderInterface>>>::_Vector_impl" = type { %"struct.std::_Vector_base<std::unique_ptr<draco::AttributesDecoderInterface>, std::allocator<std::unique_ptr<draco::AttributesDecoderInterface>>>::_Vector_impl_data" }
%"struct.std::_Vector_base<std::unique_ptr<draco::AttributesDecoderInterface>, std::allocator<std::unique_ptr<draco::AttributesDecoderInterface>>>::_Vector_impl_data" = type { ptr, ptr, ptr }
%"class.std::vector.2" = type { %"struct.std::_Vector_base.3" }
%"struct.std::_Vector_base.3" = type { %"struct.std::_Vector_base<int, std::allocator<int>>::_Vector_impl" }
%"struct.std::_Vector_base<int, std::allocator<int>>::_Vector_impl" = type { %"struct.std::_Vector_base<int, std::allocator<int>>::_Vector_impl_data" }
%"struct.std::_Vector_base<int, std::allocator<int>>::_Vector_impl_data" = type { ptr, ptr, ptr }
%"class.draco::PointCloud" = type <{ ptr, %"class.std::unique_ptr.7", %"class.std::vector.15", [5 x %"class.std::vector.2"], i32, [4 x i8] }>
%"class.std::unique_ptr.7" = type { %"struct.std::__uniq_ptr_data.8" }
%"struct.std::__uniq_ptr_data.8" = type { %"class.std::__uniq_ptr_impl.9" }
%"class.std::__uniq_ptr_impl.9" = type { %"class.std::tuple.10" }
%"class.std::tuple.10" = type { %"struct.std::_Tuple_impl.11" }
%"struct.std::_Tuple_impl.11" = type { %"struct.std::_Head_base.14" }
%"struct.std::_Head_base.14" = type { ptr }
%"class.std::vector.15" = type { %"struct.std::_Vector_base.16" }
%"struct.std::_Vector_base.16" = type { %"struct.std::_Vector_base<std::unique_ptr<draco::PointAttribute>, std::allocator<std::unique_ptr<draco::PointAttribute>>>::_Vector_impl" }
%"struct.std::_Vector_base<std::unique_ptr<draco::PointAttribute>, std::allocator<std::unique_ptr<draco::PointAttribute>>>::_Vector_impl" = type { %"struct.std::_Vector_base<std::unique_ptr<draco::PointAttribute>, std::allocator<std::unique_ptr<draco::PointAttribute>>>::_Vector_impl_data" }
%"struct.std::_Vector_base<std::unique_ptr<draco::PointAttribute>, std::allocator<std::unique_ptr<draco::PointAttribute>>>::_Vector_impl_data" = type { ptr, ptr, ptr }

; Function Attrs: mustprogress nounwind uwtable
define linkonce_odr noundef nonnull align 8 dereferenceable(8) ptr @_ZNSt10_Head_baseILm0EPN5draco14PointAttributeELb0EE7_M_headERKS3_(ptr noundef nonnull align 8 dereferenceable(8) %0) #4 comdat align 2 {
  %2 = alloca ptr, align 8
  store ptr %0, ptr %2, align 8, !tbaa !123
  %3 = load ptr, ptr %2, align 8, !tbaa !123
  %4 = getelementptr inbounds nuw %"struct.std::_Head_base.1", ptr %3, i32 0, i32 0
  ret ptr %4
}

; Function Attrs: mustprogress nounwind uwtable
define linkonce_odr noundef nonnull align 8 dereferenceable(8) ptr @_ZNSt11_Tuple_implILm0EJPN5draco14PointAttributeESt14default_deleteIS1_EEE7_M_headERKS5_(ptr noundef nonnull align 8 dereferenceable(8) %0) #4 comdat align 2 {
  %2 = alloca ptr, align 8
  store ptr %0, ptr %2, align 8, !tbaa !119
  %3 = load ptr, ptr %2, align 8, !tbaa !119
  %4 = call noundef nonnull align 8 dereferenceable(8) ptr @_ZNSt10_Head_baseILm0EPN5draco14PointAttributeELb0EE7_M_headERKS3_(ptr noundef nonnull align 8 dereferenceable(8) %3) #3
  ret ptr %4
}

; Function Attrs: mustprogress nounwind uwtable
define linkonce_odr noundef nonnull align 8 dereferenceable(8) ptr @_ZSt12__get_helperILm0EPN5draco14PointAttributeEJSt14default_deleteIS1_EEERKT0_RKSt11_Tuple_implIXT_EJS5_DpT1_EE(ptr noundef nonnull align 8 dereferenceable(8) %0) #4 comdat {
  %2 = alloca ptr, align 8
  store ptr %0, ptr %2, align 8, !tbaa !119
  %3 = load ptr, ptr %2, align 8, !tbaa !119
  %4 = call noundef nonnull align 8 dereferenceable(8) ptr @_ZNSt11_Tuple_implILm0EJPN5draco14PointAttributeESt14default_deleteIS1_EEE7_M_headERKS5_(ptr noundef nonnull align 8 dereferenceable(8) %3) #3
  ret ptr %4
}

; Function Attrs: mustprogress nounwind uwtable
define linkonce_odr noundef nonnull align 8 dereferenceable(8) ptr @_ZSt3getILm0EJPN5draco14PointAttributeESt14default_deleteIS1_EEERKNSt13tuple_elementIXT_ESt5tupleIJDpT0_EEE4typeERKS9_(ptr noundef nonnull align 8 dereferenceable(8) %0) #4 comdat {
  %2 = alloca ptr, align 8
  store ptr %0, ptr %2, align 8, !tbaa !117
  %3 = load ptr, ptr %2, align 8, !tbaa !117
  %4 = call noundef nonnull align 8 dereferenceable(8) ptr @_ZSt12__get_helperILm0EPN5draco14PointAttributeEJSt14default_deleteIS1_EEERKT0_RKSt11_Tuple_implIXT_EJS5_DpT1_EE(ptr noundef nonnull align 8 dereferenceable(8) %3) #3
  ret ptr %4
}

; Function Attrs: mustprogress nounwind uwtable
define linkonce_odr noundef ptr @_ZNKSt15__uniq_ptr_implIN5draco14PointAttributeESt14default_deleteIS1_EE6_M_ptrEv(ptr noundef nonnull align 8 dereferenceable(8) %0) #4 comdat align 2 {
  %2 = alloca ptr, align 8
  store ptr %0, ptr %2, align 8, !tbaa !115
  %3 = load ptr, ptr %2, align 8
  %4 = getelementptr inbounds nuw %"class.std::__uniq_ptr_impl", ptr %3, i32 0, i32 0
  %5 = call noundef nonnull align 8 dereferenceable(8) ptr @_ZSt3getILm0EJPN5draco14PointAttributeESt14default_deleteIS1_EEERKNSt13tuple_elementIXT_ESt5tupleIJDpT0_EEE4typeERKS9_(ptr noundef nonnull align 8 dereferenceable(8) %4) #3
  %6 = load ptr, ptr %5, align 8, !tbaa !43
  ret ptr %6
}

; Function Attrs: mustprogress nounwind uwtable
define linkonce_odr noundef ptr @_ZNKSt10unique_ptrIN5draco14PointAttributeESt14default_deleteIS1_EE3getEv(ptr noundef nonnull align 8 dereferenceable(8) %0) #4 comdat align 2 {
  %2 = alloca ptr, align 8
  store ptr %0, ptr %2, align 8, !tbaa !23
  %3 = load ptr, ptr %2, align 8
  %4 = getelementptr inbounds nuw %"class.std::unique_ptr", ptr %3, i32 0, i32 0
  %5 = call noundef ptr @_ZNKSt15__uniq_ptr_implIN5draco14PointAttributeESt14default_deleteIS1_EE6_M_ptrEv(ptr noundef nonnull align 8 dereferenceable(8) %4) #3
  ret ptr %5
}

; Function Attrs: mustprogress nounwind uwtable
define linkonce_odr noundef nonnull align 8 dereferenceable(8) ptr @_ZNSt6vectorISt10unique_ptrIN5draco14PointAttributeESt14default_deleteIS2_EESaIS5_EEixEm(ptr noundef nonnull align 8 dereferenceable(24) %0, i64 noundef %1) #4 comdat align 2 {
  %3 = alloca ptr, align 8
  %4 = alloca i64, align 8
  store ptr %0, ptr %3, align 8, !tbaa !128
  store i64 %1, ptr %4, align 8, !tbaa !87
  %5 = load ptr, ptr %3, align 8
  %6 = getelementptr inbounds nuw %"struct.std::_Vector_base.16", ptr %5, i32 0, i32 0
  %7 = getelementptr inbounds nuw %"struct.std::_Vector_base<std::unique_ptr<draco::PointAttribute>, std::allocator<std::unique_ptr<draco::PointAttribute>>>::_Vector_impl_data", ptr %6, i32 0, i32 0
  %8 = load ptr, ptr %7, align 8, !tbaa !130
  %9 = load i64, ptr %4, align 8, !tbaa !87
  %10 = getelementptr inbounds nuw %"class.std::unique_ptr", ptr %8, i64 %9
  ret ptr %10
}

; Function Attrs: mustprogress nounwind uwtable
define linkonce_odr noundef ptr @_ZN5draco10PointCloud9attributeEi(ptr noundef nonnull align 8 dereferenceable(164) %0, i32 noundef %1) #4 comdat align 2 {
  %3 = alloca ptr, align 8
  %4 = alloca i32, align 4
  store ptr %0, ptr %3, align 8, !tbaa !42
  store i32 %1, ptr %4, align 4, !tbaa !26
  %5 = load ptr, ptr %3, align 8
  %6 = getelementptr inbounds nuw %"class.draco::PointCloud", ptr %5, i32 0, i32 2
  %7 = load i32, ptr %4, align 4, !tbaa !26
  %8 = sext i32 %7 to i64
  %9 = call noundef nonnull align 8 dereferenceable(8) ptr @_ZNSt6vectorISt10unique_ptrIN5draco14PointAttributeESt14default_deleteIS2_EESaIS5_EEixEm(ptr noundef nonnull align 8 dereferenceable(24) %6, i64 noundef %8) #3
  %10 = call noundef ptr @_ZNKSt10unique_ptrIN5draco14PointAttributeESt14default_deleteIS1_EE3getEv(ptr noundef nonnull align 8 dereferenceable(8) %9) #3
  ret ptr %10
}

; Function Attrs: mustprogress nounwind uwtable
define linkonce_odr noundef zeroext i16 @_ZNK5draco17PointCloudDecoder17bitstream_versionEv(ptr noundef nonnull align 8 dereferenceable(88) %0) #4 comdat align 2 {
  %2 = alloca ptr, align 8
  store ptr %0, ptr %2, align 8, !tbaa !25
  %3 = load ptr, ptr %2, align 8
  %4 = getelementptr inbounds nuw %"class.draco::PointCloudDecoder", ptr %3, i32 0, i32 5
  %5 = load i8, ptr %4, align 8, !tbaa !95
  %6 = zext i8 %5 to i16
  %7 = zext i16 %6 to i32
  %8 = shl i32 %7, 8
  %9 = getelementptr inbounds nuw %"class.draco::PointCloudDecoder", ptr %3, i32 0, i32 6
  %10 = load i8, ptr %9, align 1, !tbaa !96
  %11 = zext i8 %10 to i32
  %12 = or i32 %8, %11
  %13 = trunc i32 %12 to i16
  ret i16 %13
}

; Function Attrs: mustprogress nounwind uwtable
define linkonce_odr noundef ptr @_ZN5draco17PointCloudDecoder11point_cloudEv(ptr noundef nonnull align 8 dereferenceable(88) %0) #4 comdat align 2 {
  %2 = alloca ptr, align 8
  store ptr %0, ptr %2, align 8, !tbaa !25
  %3 = load ptr, ptr %2, align 8
  %4 = getelementptr inbounds nuw %"class.draco::PointCloudDecoder", ptr %3, i32 0, i32 1
  %5 = load ptr, ptr %4, align 8, !tbaa !27
  ret ptr %5
}

; Function Attrs: mustprogress uwtable
define noundef zeroext i1 @_ZN5draco26SequentialAttributeDecoder20InitPredictionSchemeEPNS_25PredictionSchemeInterfaceE(ptr noundef nonnull align 8 dereferenceable(40) %0, ptr noundef %1) unnamed_addr #5 align 2 {
  %3 = alloca i1, align 1
  %4 = alloca ptr, align 8
  %5 = alloca ptr, align 8
  %6 = alloca i32, align 4
  %7 = alloca i32, align 4
  %8 = alloca i32, align 4
  %9 = alloca ptr, align 8
  store ptr %0, ptr %4, align 8, !tbaa !3
  store ptr %1, ptr %5, align 8, !tbaa !92
  %10 = load ptr, ptr %4, align 8
  call void @llvm.lifetime.start.p0(i64 4, ptr %6) #3
  store i32 0, ptr %6, align 4, !tbaa !26
  br label %11

11:                                               ; preds = %76, %2
  %12 = load i32, ptr %6, align 4, !tbaa !26
  %13 = load ptr, ptr %5, align 8, !tbaa !92
  %14 = load ptr, ptr %13, align 8, !tbaa !8
  %15 = getelementptr inbounds ptr, ptr %14, i64 5
  %16 = load ptr, ptr %15, align 8
  %17 = call noundef i32 %16(ptr noundef nonnull align 8 dereferenceable(8) %13)
  %18 = icmp slt i32 %12, %17
  br i1 %18, label %20, label %19

19:                                               ; preds = %11
  store i32 2, ptr %7, align 4
  br label %79

20:                                               ; preds = %11
  call void @llvm.lifetime.start.p0(i64 4, ptr %8) #3
  %21 = getelementptr inbounds nuw %"class.draco::SequentialAttributeDecoder", ptr %10, i32 0, i32 1
  %22 = load ptr, ptr %21, align 8, !tbaa !10
  %23 = call noundef ptr @_ZN5draco17PointCloudDecoder11point_cloudEv(ptr noundef nonnull align 8 dereferenceable(88) %22)
  %24 = load ptr, ptr %5, align 8, !tbaa !92
  %25 = load i32, ptr %6, align 4, !tbaa !26
  %26 = load ptr, ptr %24, align 8, !tbaa !8
  %27 = getelementptr inbounds ptr, ptr %26, i64 6
  %28 = load ptr, ptr %27, align 8
  %29 = call noundef i32 %28(ptr noundef nonnull align 8 dereferenceable(8) %24, i32 noundef %25)
  %30 = call noundef i32 @_ZNK5draco10PointCloud19GetNamedAttributeIdENS_17GeometryAttribute4TypeE(ptr noundef nonnull align 8 dereferenceable(164) %23, i32 noundef %29)
  store i32 %30, ptr %8, align 4, !tbaa !26
  %31 = load i32, ptr %8, align 4, !tbaa !26
  %32 = icmp eq i32 %31, -1
  br i1 %32, label %33, label %34

33:                                               ; preds = %20
  store i1 false, ptr %3, align 1
  store i32 1, ptr %7, align 4
  br label %73

34:                                               ; preds = %20
  %35 = getelementptr inbounds nuw %"class.draco::SequentialAttributeDecoder", ptr %10, i32 0, i32 1
  %36 = load ptr, ptr %35, align 8, !tbaa !10
  %37 = call noundef zeroext i16 @_ZNK5draco17PointCloudDecoder17bitstream_versionEv(ptr noundef nonnull align 8 dereferenceable(88) %36)
  %38 = zext i16 %37 to i32
  %39 = icmp slt i32 %38, 512
  br i1 %39, label %40, label %53

40:                                               ; preds = %34
  %41 = load ptr, ptr %5, align 8, !tbaa !92
  %42 = getelementptr inbounds nuw %"class.draco::SequentialAttributeDecoder", ptr %10, i32 0, i32 1
  %43 = load ptr, ptr %42, align 8, !tbaa !10
  %44 = call noundef ptr @_ZN5draco17PointCloudDecoder11point_cloudEv(ptr noundef nonnull align 8 dereferenceable(88) %43)
  %45 = load i32, ptr %8, align 4, !tbaa !26
  %46 = call noundef ptr @_ZN5draco10PointCloud9attributeEi(ptr noundef nonnull align 8 dereferenceable(164) %44, i32 noundef %45)
  %47 = load ptr, ptr %41, align 8, !tbaa !8
  %48 = getelementptr inbounds ptr, ptr %47, i64 7
  %49 = load ptr, ptr %48, align 8
  %50 = call noundef zeroext i1 %49(ptr noundef nonnull align 8 dereferenceable(8) %41, ptr noundef %46)
  br i1 %50, label %52, label %51

51:                                               ; preds = %40
  store i1 false, ptr %3, align 1
  store i32 1, ptr %7, align 4
  br label %73

52:                                               ; preds = %40
  br label %72

53:                                               ; preds = %34
  call void @llvm.lifetime.start.p0(i64 8, ptr %9) #3
  %54 = getelementptr inbounds nuw %"class.draco::SequentialAttributeDecoder", ptr %10, i32 0, i32 1
  %55 = load ptr, ptr %54, align 8, !tbaa !10
  %56 = load i32, ptr %8, align 4, !tbaa !26
  %57 = call noundef ptr @_ZN5draco17PointCloudDecoder20GetPortableAttributeEi(ptr noundef nonnull align 8 dereferenceable(88) %55, i32 noundef %56)
  store ptr %57, ptr %9, align 8, !tbaa !43
  %58 = load ptr, ptr %9, align 8, !tbaa !43
  %59 = icmp eq ptr %58, null
  br i1 %59, label %67, label %60

60:                                               ; preds = %53
  %61 = load ptr, ptr %5, align 8, !tbaa !92
  %62 = load ptr, ptr %9, align 8, !tbaa !43
  %63 = load ptr, ptr %61, align 8, !tbaa !8
  %64 = getelementptr inbounds ptr, ptr %63, i64 7
  %65 = load ptr, ptr %64, align 8
  %66 = call noundef zeroext i1 %65(ptr noundef nonnull align 8 dereferenceable(8) %61, ptr noundef %62)
  br i1 %66, label %68, label %67

67:                                               ; preds = %60, %53
  store i1 false, ptr %3, align 1
  store i32 1, ptr %7, align 4
  br label %69

68:                                               ; preds = %60
  store i32 0, ptr %7, align 4
  br label %69

69:                                               ; preds = %68, %67
  call void @llvm.lifetime.end.p0(i64 8, ptr %9) #3
  %70 = load i32, ptr %7, align 4
  switch i32 %70, label %73 [
    i32 0, label %71
  ]

71:                                               ; preds = %69
  br label %72

72:                                               ; preds = %71, %52
  store i32 0, ptr %7, align 4
  br label %73

73:                                               ; preds = %72, %69, %51, %33
  call void @llvm.lifetime.end.p0(i64 4, ptr %8) #3
  %74 = load i32, ptr %7, align 4
  switch i32 %74, label %79 [
    i32 0, label %75
  ]

75:                                               ; preds = %73
  br label %76

76:                                               ; preds = %75
  %77 = load i32, ptr %6, align 4, !tbaa !26
  %78 = add nsw i32 %77, 1
  store i32 %78, ptr %6, align 4, !tbaa !26
  br label %11, !llvm.loop !94

79:                                               ; preds = %73, %19
  call void @llvm.lifetime.end.p0(i64 4, ptr %6) #3
  %80 = load i32, ptr %7, align 4
  switch i32 %80, label %84 [
    i32 2, label %81
    i32 1, label %82
  ]

81:                                               ; preds = %79
  store i1 true, ptr %3, align 1
  br label %82

82:                                               ; preds = %81, %79
  %83 = load i1, ptr %3, align 1
  ret i1 %83

84:                                               ; preds = %79
  unreachable
}